; Function Attrs: mustprogress nounwind uwtable
define hidden { ptr, i32 } @_ZN4llvm16DAGTypeLegalizer16PromoteIntOp_CMPEPNS_6SDNodeE(ptr noundef nonnull align 8 dereferenceable(2512) %0, ptr noundef %1) local_unnamed_addr #0 align 2 {
  %3 = alloca %"class.llvm::SDValue", align 8
  %4 = alloca %"class.llvm::SDValue", align 8
  %5 = getelementptr inbounds nuw i8, ptr %1, i64 40
  %6 = load ptr, ptr %5, align 8
  call void @llvm.memcpy.p0.p0.i64(ptr noundef nonnull align 8 dereferenceable(16) %3, ptr noundef nonnull align 8 dereferenceable(16) %6, i64 16, i1 false)
  %7 = getelementptr inbounds i8, ptr %6, i64 40
  call void @llvm.memcpy.p0.p0.i64(ptr noundef nonnull align 8 dereferenceable(16) %4, ptr noundef nonnull align 8 dereferenceable(16) %7, i64 16, i1 false)
  %8 = getelementptr inbounds nuw i8, ptr %1, i64 24
  %9 = load i32, ptr %8, align 8
  %10 = icmp eq i32 %9, 183
  br i1 %10, label %11, label %14

11:                                               ; preds = %2
  %.sroa.015.0.copyload = load ptr, ptr %3, align 8
  %.sroa.216.0..sroa_idx = getelementptr inbounds i8, ptr %3, i64 8
  %.sroa.216.0.copyload = load i32, ptr %.sroa.216.0..sroa_idx, align 8
  %12 = tail call { ptr, i32 } @_ZN4llvm16DAGTypeLegalizer19SExtPromotedIntegerENS_7SDValueE(ptr noundef nonnull align 8 dereferenceable(2512) %0, ptr %.sroa.015.0.copyload, i32 %.sroa.216.0.copyload)
  %.fca.0.extract11 = extractvalue { ptr, i32 } %12, 0
  %.fca.1.extract12 = extractvalue { ptr, i32 } %12, 1
  %.sroa.06.0.copyload = load ptr, ptr %4, align 8
  %.sroa.27.0..sroa_idx = getelementptr inbounds i8, ptr %4, i64 8
  %.sroa.27.0.copyload = load i32, ptr %.sroa.27.0..sroa_idx, align 8
  %13 = tail call { ptr, i32 } @_ZN4llvm16DAGTypeLegalizer19SExtPromotedIntegerENS_7SDValueE(ptr noundef nonnull align 8 dereferenceable(2512) %0, ptr %.sroa.06.0.copyload, i32 %.sroa.27.0.copyload)
  %.fca.0.extract = extractvalue { ptr, i32 } %13, 0
  %.fca.1.extract = extractvalue { ptr, i32 } %13, 1
  br label %15

14:                                               ; preds = %2
  call void @_ZN4llvm16DAGTypeLegalizer26SExtOrZExtPromotedOperandsERNS_7SDValueES2_(ptr noundef nonnull align 8 dereferenceable(2512) %0, ptr noundef nonnull align 8 dereferenceable(12) %3, ptr noundef nonnull align 8 dereferenceable(12) %4)
  %.sroa.01.0.copyload.pre = load ptr, ptr %3, align 8
  %.sroa.22.0..sroa_idx.phi.trans.insert = getelementptr inbounds i8, ptr %3, i64 8
  %.sroa.22.0.copyload.pre = load i32, ptr %.sroa.22.0..sroa_idx.phi.trans.insert, align 8
  %.sroa.0.0.copyload.pre = load ptr, ptr %4, align 8
  %.sroa.2.0..sroa_idx.phi.trans.insert = getelementptr inbounds i8, ptr %4, i64 8
  %.sroa.2.0.copyload.pre = load i32, ptr %.sroa.2.0..sroa_idx.phi.trans.insert, align 8
  br label %15

15:                                               ; preds = %14, %11
  %.sroa.2.0.copyload = phi i32 [ %.sroa.2.0.copyload.pre, %14 ], [ %.fca.1.extract, %11 ]
  %.sroa.0.0.copyload = phi ptr [ %.sroa.0.0.copyload.pre, %14 ], [ %.fca.0.extract, %11 ]
  %.sroa.22.0.copyload = phi i32 [ %.sroa.22.0.copyload.pre, %14 ], [ %.fca.1.extract12, %11 ]
  %.sroa.01.0.copyload = phi ptr [ %.sroa.01.0.copyload.pre, %14 ], [ %.fca.0.extract11, %11 ]
  %16 = getelementptr inbounds nuw i8, ptr %0, i64 8
  %17 = load ptr, ptr %16, align 8
  %18 = tail call noundef ptr @_ZN4llvm12SelectionDAG18UpdateNodeOperandsEPNS_6SDNodeENS_7SDValueES3_(ptr noundef nonnull align 8 dereferenceable(904) %17, ptr noundef nonnull %1, ptr %.sroa.01.0.copyload, i32 %.sroa.22.0.copyload, ptr %.sroa.0.0.copyload, i32 %.sroa.2.0.copyload) #17
  %.fca.0.insert = insertvalue { ptr, i32 } poison, ptr %18, 0
  %.fca.1.insert = insertvalue { ptr, i32 } %.fca.0.insert, i32 0, 1
  ret { ptr, i32 } %.fca.1.insert
}